target datalayout = "e-m:e-p270:32:32-p271:32:32-p272:64:64-i64:64-i128:128-f80:128-n8:16:32:64-S128"
target triple = "x86_64-pc-linux-gnu"

%struct.Variable = type { i32, double, double, double, ptr, i8, %"class.std::vector", %"class.std::vector" }
%"class.std::vector" = type { %"struct.std::_Vector_base" }
%"struct.std::_Vector_base" = type { %"struct.std::_Vector_base<Constraint *, std::allocator<Constraint *>>::_Vector_impl" }
%"struct.std::_Vector_base<Constraint *, std::allocator<Constraint *>>::_Vector_impl" = type { %"struct.std::_Vector_base<Constraint *, std::allocator<Constraint *>>::_Vector_impl_data" }
%"struct.std::_Vector_base<Constraint *, std::allocator<Constraint *>>::_Vector_impl_data" = type { ptr, ptr, ptr }

; Function Attrs: mustprogress nounwind uwtable
define linkonce_odr void @_ZNSt15__new_allocatorIP10ConstraintEC2Ev(ptr noundef nonnull align 1 dereferenceable(1) %0) unnamed_addr #6 comdat align 2 {
  %2 = alloca ptr, align 8
  store ptr %0, ptr %2, align 8, !tbaa !86
  ret void
}

; Function Attrs: mustprogress nounwind uwtable
define linkonce_odr void @_ZNSt12_Vector_baseIP10ConstraintSaIS1_EE17_Vector_impl_dataC2Ev(ptr noundef nonnull align 8 dereferenceable(24) %0) unnamed_addr #6 comdat align 2 {
  %2 = alloca ptr, align 8
  store ptr %0, ptr %2, align 8, !tbaa !84
  %3 = load ptr, ptr %2, align 8
  %4 = getelementptr inbounds nuw %"struct.std::_Vector_base<Constraint *, std::allocator<Constraint *>>::_Vector_impl_data", ptr %3, i32 0, i32 0
  store ptr null, ptr %4, align 8, !tbaa !76
  %5 = getelementptr inbounds nuw %"struct.std::_Vector_base<Constraint *, std::allocator<Constraint *>>::_Vector_impl_data", ptr %3, i32 0, i32 1
  store ptr null, ptr %5, align 8, !tbaa !74
  %6 = getelementptr inbounds nuw %"struct.std::_Vector_base<Constraint *, std::allocator<Constraint *>>::_Vector_impl_data", ptr %3, i32 0, i32 2
  store ptr null, ptr %6, align 8, !tbaa !75
  ret void
}

; Function Attrs: mustprogress nounwind uwtable
define linkonce_odr void @_ZNSaIP10ConstraintEC2Ev(ptr noundef nonnull align 1 dereferenceable(1) %0) unnamed_addr #6 comdat align 2 {
  %2 = alloca ptr, align 8
  store ptr %0, ptr %2, align 8, !tbaa !82
  %3 = load ptr, ptr %2, align 8
  call void @_ZNSt15__new_allocatorIP10ConstraintEC2Ev(ptr noundef nonnull align 1 dereferenceable(1) %3) #3
  ret void
}

; Function Attrs: mustprogress nounwind uwtable
define linkonce_odr void @_ZNSt12_Vector_baseIP10ConstraintSaIS1_EE12_Vector_implC2Ev(ptr noundef nonnull align 8 dereferenceable(24) %0) unnamed_addr #6 comdat align 2 {
  %2 = alloca ptr, align 8
  store ptr %0, ptr %2, align 8, !tbaa !80
  %3 = load ptr, ptr %2, align 8
  call void @_ZNSaIP10ConstraintEC2Ev(ptr noundef nonnull align 1 dereferenceable(1) %3) #3
  call void @_ZNSt12_Vector_baseIP10ConstraintSaIS1_EE17_Vector_impl_dataC2Ev(ptr noundef nonnull align 8 dereferenceable(24) %3) #3
  ret void
}

; Function Attrs: mustprogress nounwind uwtable
define linkonce_odr void @_ZNSt12_Vector_baseIP10ConstraintSaIS1_EEC2Ev(ptr noundef nonnull align 8 dereferenceable(24) %0) unnamed_addr #6 comdat align 2 {
  %2 = alloca ptr, align 8
  store ptr %0, ptr %2, align 8, !tbaa !78
  %3 = load ptr, ptr %2, align 8
  %4 = getelementptr inbounds nuw %"struct.std::_Vector_base", ptr %3, i32 0, i32 0
  call void @_ZNSt12_Vector_baseIP10ConstraintSaIS1_EE12_Vector_implC2Ev(ptr noundef nonnull align 8 dereferenceable(24) %4) #3
  ret void
}

; Function Attrs: mustprogress nounwind uwtable
define linkonce_odr void @_ZNSt6vectorIP10ConstraintSaIS1_EEC2Ev(ptr noundef nonnull align 8 dereferenceable(24) %0) unnamed_addr #6 comdat align 2 {
  %2 = alloca ptr, align 8
  store ptr %0, ptr %2, align 8, !tbaa !65
  %3 = load ptr, ptr %2, align 8
  call void @_ZNSt12_Vector_baseIP10ConstraintSaIS1_EEC2Ev(ptr noundef nonnull align 8 dereferenceable(24) %3) #3
  ret void
}

; Function Attrs: mustprogress nounwind uwtable
define linkonce_odr void @_ZN8VariableC2Eidd(ptr noundef nonnull align 8 dereferenceable(96) %0, i32 noundef %1, double noundef %2, double noundef %3) unnamed_addr #6 comdat align 2 {
  %5 = alloca ptr, align 8
  %6 = alloca i32, align 4
  %7 = alloca double, align 8
  %8 = alloca double, align 8
  store ptr %0, ptr %5, align 8, !tbaa !9
  store i32 %1, ptr %6, align 4, !tbaa !3
  store double %2, ptr %7, align 8, !tbaa !7
  store double %3, ptr %8, align 8, !tbaa !7
  %9 = load ptr, ptr %5, align 8
  %10 = getelementptr inbounds nuw %struct.Variable, ptr %9, i32 0, i32 0
  %11 = load i32, ptr %6, align 4, !tbaa !3
  store i32 %11, ptr %10, align 8, !tbaa !12
  %12 = getelementptr inbounds nuw %struct.Variable, ptr %9, i32 0, i32 1
  %13 = load double, ptr %7, align 8, !tbaa !7
  store double %13, ptr %12, align 8, !tbaa !21
  %14 = getelementptr inbounds nuw %struct.Variable, ptr %9, i32 0, i32 2
  %15 = load double, ptr %8, align 8, !tbaa !7
  store double %15, ptr %14, align 8, !tbaa !22
  %16 = getelementptr inbounds nuw %struct.Variable, ptr %9, i32 0, i32 3
  store double 0.000000e+00, ptr %16, align 8, !tbaa !23
  %17 = getelementptr inbounds nuw %struct.Variable, ptr %9, i32 0, i32 4
  store ptr null, ptr %17, align 8, !tbaa !24
  %18 = getelementptr inbounds nuw %struct.Variable, ptr %9, i32 0, i32 5
  store i8 0, ptr %18, align 8, !tbaa !25
  %19 = getelementptr inbounds nuw %struct.Variable, ptr %9, i32 0, i32 6
  call void @_ZNSt6vectorIP10ConstraintSaIS1_EEC2Ev(ptr noundef nonnull align 8 dereferenceable(24) %19) #3
  %20 = getelementptr inbounds nuw %struct.Variable, ptr %9, i32 0, i32 7
  call void @_ZNSt6vectorIP10ConstraintSaIS1_EEC2Ev(ptr noundef nonnull align 8 dereferenceable(24) %20) #3
  ret void
}

; Function Attrs: mustprogress uwtable
define ptr @newVariable(i32 noundef %0, double noundef %1, double noundef %2) #4 personality ptr @__gxx_personality_v0 {
  %4 = alloca i32, align 4
  %5 = alloca double, align 8
  %6 = alloca double, align 8
  %7 = alloca ptr, align 8
  %8 = alloca i32, align 4
  store i32 %0, ptr %4, align 4, !tbaa !3
  store double %1, ptr %5, align 8, !tbaa !7
  store double %2, ptr %6, align 8, !tbaa !7
  %9 = call noalias noundef nonnull ptr @_Znwm(i64 noundef 96) #18
  %10 = load i32, ptr %4, align 4, !tbaa !3
  %11 = load double, ptr %5, align 8, !tbaa !7
  %12 = load double, ptr %6, align 8, !tbaa !7
  invoke void @_ZN8VariableC2Eidd(ptr noundef nonnull align 8 dereferenceable(96) %9, i32 noundef %10, double noundef %11, double noundef %12)
          to label %13 unwind label %14

13:                                               ; preds = %3
  ret ptr %9

14:                                               ; preds = %3
  %15 = landingpad { ptr, i32 }
          cleanup
  %16 = extractvalue { ptr, i32 } %15, 0
  store ptr %16, ptr %7, align 8
  %17 = extractvalue { ptr, i32 } %15, 1
  store i32 %17, ptr %8, align 4
  call void @_ZdlPvm(ptr noundef %9, i64 noundef 96) #19
  br label %18

18:                                               ; preds = %14
  %19 = load ptr, ptr %7, align 8
  %20 = load i32, ptr %8, align 4
  %21 = insertvalue { ptr, i32 } poison, ptr %19, 0
  %22 = insertvalue { ptr, i32 } %21, i32 %20, 1
  resume { ptr, i32 } %22
}